target datalayout = "e-m:e-p270:32:32-p271:32:32-p272:64:64-i64:64-i128:128-f80:128-n8:16:32:64-S128"
target triple = "x86_64-pc-linux-gnu"

%struct._object = type { %union.anon, ptr }
%union.anon = type { i64 }
%struct._typeobject = type { %struct.PyVarObject, ptr, i64, i64, ptr, i64, ptr, ptr, ptr, ptr, ptr, ptr, ptr, ptr, ptr, ptr, ptr, ptr, ptr, i64, ptr, ptr, ptr, ptr, i64, ptr, ptr, ptr, ptr, ptr, ptr, ptr, ptr, ptr, i64, ptr, ptr, ptr, ptr, ptr, ptr, ptr, ptr, ptr, ptr, ptr, i32, ptr, ptr, i8, i16 }
%struct.PyVarObject = type { %struct._object, i64 }
%struct.PyDictObject = type { %struct._object, i64, i64, ptr, ptr }

@PyTuple_Type = external global %struct._typeobject, align 8
@.str.97 = private unnamed_addr constant [25 x i8] c"PyTuple_CheckExact(args)\00", align 1
@.str.98 = private unnamed_addr constant [39 x i8] c"../cpython/Modules/_testcapi/getargs.c\00", align 1
@__PRETTY_FUNCTION__.getargs_empty = private unnamed_addr constant [60 x i8] c"PyObject *getargs_empty(PyObject *, PyObject *, PyObject *)\00", align 1
@PyDict_Type = external global %struct._typeobject, align 8
@.str.99 = private unnamed_addr constant [44 x i8] c"kwargs == NULL || PyDict_CheckExact(kwargs)\00", align 1
@getargs_empty.kwlist = internal global [1 x ptr] zeroinitializer, align 8
@.str.100 = private unnamed_addr constant [16 x i8] c"|:getargs_empty\00", align 1
@.str.101 = private unnamed_addr constant [17 x i8] c"PyDict_Check(op)\00", align 1
@.str.102 = private unnamed_addr constant [40 x i8] c"../cpython/Include/cpython/dictobject.h\00", align 1
@__PRETTY_FUNCTION__.PyDict_GET_SIZE = private unnamed_addr constant [39 x i8] c"Py_ssize_t PyDict_GET_SIZE(PyObject *)\00", align 1

; Function Attrs: inlinehint nounwind uwtable
define internal i32 @PyType_HasFeature(ptr noundef %0, i64 noundef %1) #2 {
  %3 = alloca ptr, align 8
  %4 = alloca i64, align 8
  %5 = alloca i64, align 8
  store ptr %0, ptr %3, align 8, !tbaa !42
  store i64 %1, ptr %4, align 8, !tbaa !20
  call void @llvm.lifetime.start.p0(i64 8, ptr %5) #9
  %6 = load ptr, ptr %3, align 8, !tbaa !42
  %7 = getelementptr inbounds nuw %struct._typeobject, ptr %6, i32 0, i32 19
  %8 = load i64, ptr %7, align 8, !tbaa !49
  store i64 %8, ptr %5, align 8, !tbaa !20
  %9 = load i64, ptr %5, align 8, !tbaa !20
  %10 = load i64, ptr %4, align 8, !tbaa !20
  %11 = and i64 %9, %10
  %12 = icmp ne i64 %11, 0
  %13 = zext i1 %12 to i32
  call void @llvm.lifetime.end.p0(i64 8, ptr %5) #9
  ret i32 %13
}

; Function Attrs: inlinehint nounwind uwtable
define internal ptr @_Py_TYPE(ptr noundef %0) #2 {
  %2 = alloca ptr, align 8
  store ptr %0, ptr %2, align 8, !tbaa !3
  %3 = load ptr, ptr %2, align 8, !tbaa !3
  %4 = getelementptr inbounds nuw %struct._object, ptr %3, i32 0, i32 1
  %5 = load ptr, ptr %4, align 8, !tbaa !44
  ret ptr %5
}

; Function Attrs: inlinehint nounwind uwtable
define internal i64 @PyDict_GET_SIZE(ptr noundef %0) #2 {
  %2 = alloca ptr, align 8
  %3 = alloca ptr, align 8
  store ptr %0, ptr %2, align 8, !tbaa !3
  call void @llvm.lifetime.start.p0(i64 8, ptr %3) #9
  %4 = load ptr, ptr %2, align 8, !tbaa !3
  %5 = call ptr @_Py_TYPE(ptr noundef %4)
  %6 = call i32 @PyType_HasFeature(ptr noundef %5, i64 noundef 536870912)
  %7 = icmp ne i32 %6, 0
  br i1 %7, label %8, label %9

8:                                                ; preds = %1
  br label %11

9:                                                ; preds = %1
  call void @__assert_fail(ptr noundef @.str.101, ptr noundef @.str.102, i32 noundef 55, ptr noundef @__PRETTY_FUNCTION__.PyDict_GET_SIZE) #10
  unreachable

10:                                               ; No predecessors!
  br label %11

11:                                               ; preds = %10, %8
  %12 = load ptr, ptr %2, align 8, !tbaa !3
  store ptr %12, ptr %3, align 8, !tbaa !19
  %13 = load ptr, ptr %3, align 8, !tbaa !19
  %14 = getelementptr inbounds nuw %struct.PyDictObject, ptr %13, i32 0, i32 1
  %15 = load i64, ptr %14, align 8, !tbaa !45
  call void @llvm.lifetime.end.p0(i64 8, ptr %3) #9
  ret i64 %15
}

; Function Attrs: inlinehint nounwind uwtable
define internal i32 @Py_IS_TYPE(ptr noundef %0, ptr noundef %1) #2 {
  %3 = alloca ptr, align 8
  %4 = alloca ptr, align 8
  store ptr %0, ptr %3, align 8, !tbaa !3
  store ptr %1, ptr %4, align 8, !tbaa !42
  %5 = load ptr, ptr %3, align 8, !tbaa !3
  %6 = call ptr @_Py_TYPE(ptr noundef %5)
  %7 = load ptr, ptr %4, align 8, !tbaa !42
  %8 = icmp eq ptr %6, %7
  %9 = zext i1 %8 to i32
  ret i32 %9
}

; Function Attrs: nounwind uwtable
define internal ptr @getargs_empty(ptr noundef %0, ptr noundef %1, ptr noundef %2) #0 {
  %4 = alloca ptr, align 8
  %5 = alloca ptr, align 8
  %6 = alloca ptr, align 8
  %7 = alloca ptr, align 8
  %8 = alloca i32, align 4
  %9 = alloca i32, align 4
  store ptr %0, ptr %5, align 8, !tbaa !3
  store ptr %1, ptr %6, align 8, !tbaa !3
  store ptr %2, ptr %7, align 8, !tbaa !3
  %10 = load ptr, ptr %6, align 8, !tbaa !3
  %11 = call i32 @Py_IS_TYPE(ptr noundef %10, ptr noundef @PyTuple_Type)
  %12 = icmp ne i32 %11, 0
  br i1 %12, label %13, label %14

13:                                               ; preds = %3
  br label %16

14:                                               ; preds = %3
  call void @__assert_fail(ptr noundef @.str.97, ptr noundef @.str.98, i32 noundef 264, ptr noundef @__PRETTY_FUNCTION__.getargs_empty) #10
  unreachable

15:                                               ; No predecessors!
  br label %16

16:                                               ; preds = %15, %13
  %17 = load ptr, ptr %7, align 8, !tbaa !3
  %18 = icmp eq ptr %17, null
  br i1 %18, label %23, label %19

19:                                               ; preds = %16
  %20 = load ptr, ptr %7, align 8, !tbaa !3
  %21 = call i32 @Py_IS_TYPE(ptr noundef %20, ptr noundef @PyDict_Type)
  %22 = icmp ne i32 %21, 0
  br i1 %22, label %23, label %24

23:                                               ; preds = %19, %16
  br label %26

24:                                               ; preds = %19
  call void @__assert_fail(ptr noundef @.str.99, ptr noundef @.str.98, i32 noundef 265, ptr noundef @__PRETTY_FUNCTION__.getargs_empty) #10
  unreachable

25:                                               ; No predecessors!
  br label %26

26:                                               ; preds = %25, %23
  call void @llvm.lifetime.start.p0(i64 4, ptr %8) #9
  %27 = load ptr, ptr %7, align 8, !tbaa !3
  %28 = icmp ne ptr %27, null
  br i1 %28, label %29, label %37

29:                                               ; preds = %26
  %30 = load ptr, ptr %7, align 8, !tbaa !3
  %31 = call i64 @PyDict_GET_SIZE(ptr noundef %30)
  %32 = icmp sgt i64 %31, 0
  br i1 %32, label %33, label %37

33:                                               ; preds = %29
  %34 = load ptr, ptr %6, align 8, !tbaa !3
  %35 = load ptr, ptr %7, align 8, !tbaa !3
  %36 = call i32 (ptr, ptr, ptr, ptr, ...) @PyArg_ParseTupleAndKeywords(ptr noundef %34, ptr noundef %35, ptr noundef @.str.100, ptr noundef @getargs_empty.kwlist)
  store i32 %36, ptr %8, align 4, !tbaa !9
  br label %40

37:                                               ; preds = %29, %26
  %38 = load ptr, ptr %6, align 8, !tbaa !3
  %39 = call i32 (ptr, ptr, ...) @PyArg_ParseTuple(ptr noundef %38, ptr noundef @.str.100)
  store i32 %39, ptr %8, align 4, !tbaa !9
  br label %40

40:                                               ; preds = %37, %33
  %41 = load i32, ptr %8, align 4, !tbaa !9
  %42 = icmp ne i32 %41, 0
  br i1 %42, label %44, label %43

43:                                               ; preds = %40
  store ptr null, ptr %4, align 8
  store i32 1, ptr %9, align 4
  br label %48

44:                                               ; preds = %40
  %45 = load i32, ptr %8, align 4, !tbaa !9
  %46 = sext i32 %45 to i64
  %47 = call ptr @PyLong_FromLong(i64 noundef %46)
  store ptr %47, ptr %4, align 8
  store i32 1, ptr %9, align 4
  br label %48

48:                                               ; preds = %44, %43
  call void @llvm.lifetime.end.p0(i64 4, ptr %8) #9
  %49 = load ptr, ptr %4, align 8
  ret ptr %49
}