; Function Attrs: nounwind uwtable
define internal ptr @getargs_empty(ptr readnone captures(none) %0, ptr noundef %1, ptr noundef %2) #0 {
  %4 = getelementptr i8, ptr %1, i64 8
  %.val = load ptr, ptr %4, align 8, !tbaa !20
  %.not = icmp eq ptr %.val, @PyTuple_Type
  br i1 %.not, label %6, label %5

5:                                                ; preds = %3
  tail call void @__assert_fail(ptr noundef nonnull @.str.97, ptr noundef nonnull @.str.98, i32 noundef 264, ptr noundef nonnull @__PRETTY_FUNCTION__.getargs_empty) #8
  unreachable

6:                                                ; preds = %3
  %cond = icmp eq ptr %2, null
  br i1 %cond, label %18, label %7

7:                                                ; preds = %6
  %8 = getelementptr i8, ptr %2, i64 8
  %.val15 = load ptr, ptr %8, align 8, !tbaa !20
  %.not16 = icmp eq ptr %.val15, @PyDict_Type
  br i1 %.not16, label %10, label %9

9:                                                ; preds = %7
  tail call void @__assert_fail(ptr noundef nonnull @.str.99, ptr noundef nonnull @.str.98, i32 noundef 265, ptr noundef nonnull @__PRETTY_FUNCTION__.getargs_empty) #8
  unreachable

10:                                               ; preds = %7
  %.val3.i = load i64, ptr getelementptr inbounds nuw (i8, ptr @PyDict_Type, i64 168), align 8, !tbaa !35
  %11 = and i64 %.val3.i, 536870912
  %.not.i = icmp eq i64 %11, 0
  br i1 %.not.i, label %12, label %PyDict_GET_SIZE.exit

12:                                               ; preds = %10
  tail call void @__assert_fail(ptr noundef nonnull @.str.101, ptr noundef nonnull @.str.102, i32 noundef 55, ptr noundef nonnull @__PRETTY_FUNCTION__.PyDict_GET_SIZE) #8
  unreachable

PyDict_GET_SIZE.exit:                             ; preds = %10
  %13 = getelementptr inbounds nuw i8, ptr %2, i64 16
  %14 = load i64, ptr %13, align 8, !tbaa !40
  %15 = icmp sgt i64 %14, 0
  br i1 %15, label %16, label %18

16:                                               ; preds = %PyDict_GET_SIZE.exit
  %17 = tail call i32 (ptr, ptr, ptr, ptr, ...) @PyArg_ParseTupleAndKeywords(ptr noundef nonnull %1, ptr noundef nonnull %2, ptr noundef nonnull @.str.100, ptr noundef nonnull @getargs_empty.kwlist) #7
  br label %20

18:                                               ; preds = %6, %PyDict_GET_SIZE.exit
  %19 = tail call i32 (ptr, ptr, ...) @PyArg_ParseTuple(ptr noundef nonnull %1, ptr noundef nonnull @.str.100) #7
  br label %20

20:                                               ; preds = %18, %16
  %.0 = phi i32 [ %17, %16 ], [ %19, %18 ]
  %.not14 = icmp eq i32 %.0, 0
  br i1 %.not14, label %24, label %21

21:                                               ; preds = %20
  %22 = sext i32 %.0 to i64
  %23 = tail call ptr @PyLong_FromLong(i64 noundef %22) #7
  br label %24

24:                                               ; preds = %20, %21
  %.010 = phi ptr [ %23, %21 ], [ null, %20 ]
  ret ptr %.010
}